((lp0
(ipranchas
Prancha
p1
(dp2
S'areas'
p3
(lp4
(iareas
Area
p5
(dp6
S'area'
p7
F544310.4
sS'w'
p8
F877.92
sS'x'
p9
I200
sS'h'
p10
F620.0
sS'y'
p11
I50
sS'destaque'
p12
I00
sS'drag'
p13
I00
sbasS'nome'
p14
Vhome
p15
sbaV/media/villares/VolumeD/GitHub/aparar/anotador_alpha/data
p16
tp17
.