((lp0
(ipranchas
Prancha
p1
(dp2
S'areas'
p3
(lp4
(iareas
Area
p5
(dp6
S'area'
p7
F544310.4
sS'w'
p8
F877.92
sS'x'
p9
I260
sS'h'
p10
F620.0
sS'y'
p11
I92
sS'destaque'
p12
I00
sS'drag'
p13
I00
sba(iareas
Area
p14
(dp15
S'area'
p16
I55555
sS'w'
p17
I271
sS'x'
p18
I502
sS'h'
p19
I205
sS'y'
p20
I354
sS'destaque'
p21
I00
sS'drag'
p22
I00
sbasS'nome'
p23
Vhome
p24
sbaV/home/villares/processing-3.5.4/data
p25
tp26
.